; Function Attrs: mustprogress uwtable
define void @_ZN8QuantLib12NotionalPath12addReductionERKNS_4DateEd(ptr noundef nonnull align 8 dereferenceable(24) %this, ptr noundef nonnull align 8 dereferenceable(8) %date, double noundef %newRate) local_unnamed_addr #0 align 2 {
entry:
  %newRate.addr = alloca double, align 8
  store double %newRate, ptr %newRate.addr, align 8, !tbaa !25
  %_M_finish.i = getelementptr inbounds nuw i8, ptr %this, i64 8
  %0 = load ptr, ptr %_M_finish.i, align 8, !tbaa !3
  %_M_end_of_storage.i = getelementptr inbounds nuw i8, ptr %this, i64 16
  %1 = load ptr, ptr %_M_end_of_storage.i, align 8, !tbaa !7
  %cmp.not.i = icmp eq ptr %0, %1
  br i1 %cmp.not.i, label %if.else.i, label %if.then.i

if.then.i:                                        ; preds = %entry
  %2 = load i64, ptr %date, align 8, !tbaa !9
  store i64 %2, ptr %0, align 8, !tbaa !9
  %second.i.i.i.i = getelementptr inbounds nuw i8, ptr %0, i64 8
  store double %newRate, ptr %second.i.i.i.i, align 8, !tbaa !11
  %incdec.ptr.i = getelementptr inbounds nuw i8, ptr %0, i64 16
  store ptr %incdec.ptr.i, ptr %_M_finish.i, align 8, !tbaa !15
  br label %_ZNSt6vectorISt4pairIN8QuantLib4DateEdESaIS3_EE12emplace_backIJRKS2_RdEEERS3_DpOT_.exit

if.else.i:                                        ; preds = %entry
  call void @_ZNSt6vectorISt4pairIN8QuantLib4DateEdESaIS3_EE17_M_realloc_insertIJRKS2_RdEEEvN9__gnu_cxx17__normal_iteratorIPS3_S5_EEDpOT_(ptr noundef nonnull align 8 dereferenceable(24) %this, ptr %0, ptr noundef nonnull align 8 dereferenceable(8) %date, ptr noundef nonnull align 8 dereferenceable(8) %newRate.addr)
  br label %_ZNSt6vectorISt4pairIN8QuantLib4DateEdESaIS3_EE12emplace_backIJRKS2_RdEEERS3_DpOT_.exit

_ZNSt6vectorISt4pairIN8QuantLib4DateEdESaIS3_EE12emplace_backIJRKS2_RdEEERS3_DpOT_.exit: ; preds = %if.then.i, %if.else.i
  ret void
}